Certificate:
    Data:
        Version: 3 (0x2)
        Serial Number:
            1a:dc:09:ea:be:2a:e9:df:41:80:00:68:ea:2f:07:5e:3b:d2:9b:5f
        Signature Algorithm: sha256WithRSAEncryption
        Issuer: CN=Sub CA, C=DE, O=Example
        Validity
            Not Before: Jan 28 01:54:55 2023 GMT
            Not After : Jan 28 01:54:55 2024 GMT
        Subject: CN=localhost, C=DE, O=Example
        Subject Public Key Info:
            Public Key Algorithm: rsaEncryption
                Public-Key: (2048 bit)
                Modulus:
                    00:8d:de:d8:62:82:a9:d8:9e:3a:3a:f5:be:52:ec:
                    30:25:5b:0c:f5:49:1b:a4:50:5b:d7:20:19:d1:e9:
                    02:a7:76:7e:70:50:b9:64:74:59:7d:36:8d:68:e5:
                    58:17:76:d9:51:ab:b3:33:81:ab:ec:f0:96:64:de:
                    6f:00:ac:37:3a:4b:8e:f7:87:3d:a3:56:c5:78:af:
                    7c:1c:83:98:0b:3c:57:35:ce:05:d2:a2:b9:f3:c1:
                    83:f7:5b:cf:72:d7:c6:e3:74:8b:f1:d5:b9:de:da:
                    0d:1b:ea:b9:18:2c:82:4d:84:38:9f:0f:c1:e6:3a:
                    84:cd:85:8d:9a:60:54:b1:85:66:6f:47:a9:88:e8:
                    36:f2:1a:f1:fb:df:7b:d7:f9:37:77:89:c8:1f:f5:
                    fa:ba:1e:4d:cd:e0:13:d6:6a:7d:54:6f:60:2a:c0:
                    ca:e1:d8:75:84:07:9b:1d:3d:e9:f0:eb:54:d5:c7:
                    b0:f1:20:a5:d4:9f:03:72:5a:a3:36:90:80:b5:ca:
                    6d:fc:bd:e6:4a:f4:35:d2:53:9c:45:28:81:bb:42:
                    07:41:a2:4a:91:e2:a9:89:83:66:ad:fa:44:a3:80:
                    d3:3a:56:5c:ec:97:29:2b:de:e1:0d:bd:3b:11:dc:
                    fc:f9:73:ce:fc:ce:bb:38:a7:62:f5:fd:37:da:99:
                    e9:6b
                Exponent: 65537 (0x10001)
        X509v3 extensions:
            X509v3 Authority Key Identifier: 
                C4:75:37:04:20:81:CA:26:1E:58:FE:9B:C9:BF:96:DC:0D:0E:97:91
            X509v3 Basic Constraints: critical
                CA:FALSE
            X509v3 Extended Key Usage: 
                TLS Web Server Authentication, TLS Web Client Authentication
            X509v3 Key Usage: critical
                Digital Signature, Key Encipherment
            X509v3 Subject Key Identifier: 
                51:DF:85:8C:20:28:54:A5:75:78:E7:E1:F5:FA:26:63:9A:74:DE:1A
            X509v3 Subject Alternative Name: 
                DNS:www.localhost, DNS:localhost
    Signature Algorithm: sha256WithRSAEncryption
    Signature Value:
        8d:74:b3:f5:81:a5:d6:e3:e8:2c:8b:72:35:76:ef:17:00:0e:
        d9:91:1c:82:81:e9:a7:78:83:6f:96:cd:fa:98:23:c8:79:cb:
        05:aa:cc:92:f2:ee:4b:40:ff:15:19:d1:db:bb:9b:19:14:0c:
        fb:12:5b:79:26:2a:66:52:7a:17:8f:f5:56:c1:18:12:62:24:
        0d:c0:e2:9a:07:ed:1d:c6:3b:cd:e2:24:2c:cb:7b:0c:ff:35:
        a9:bc:47:57:ec:99:a7:77:b7:75:eb:3e:84:ed:00:f6:b8:b6:
        81:47:e4:d0:2a:12:0f:10:59:f4:b1:de:13:d8:23:de:67:03:
        f4:59:cd:fc:dc:b4:8a:1b:9e:3a:bf:df:5a:39:7c:60:80:bd:
        d7:88:c2:9e:06:f1:fc:9f:08:31:7f:97:76:42:88:2d:83:c1:
        d8:b2:69:f4:92:30:14:f5:59:eb:f2:a3:2c:94:21:37:56:b2:
        81:2a:2b:15:88:29:17:4e:6b:7a:af:85:b8:04:63:4c:66:c6:
        01:1b:0c:64:6d:c2:b6:17:37:e0:fd:5c:74:0e:69:54:82:c4:
        96:ce:0e:0b:59:1f:5c:65:f3:07:4a:82:80:98:6e:93:31:8e:
        e1:3f:5f:98:c7:7a:03:46:a1:7a:0c:dd:8a:7a:c9:53:d9:84:
        aa:a4:ba:5f:93:8e:8e:be:e1:3b:74:f1:c6:38:52:be:f5:f6:
        44:c5:60:f4:67:2b:13:1c:e1:bd:15:62:d6:1d:61:b6:94:ae:
        65:42:c1:74:71:fd:1c:1e:e0:8c:a0:c3:dc:84:b1:7e:5c:80:
        5e:42:5e:61:fb:22:35:1d:c7:20:ae:6d:a8:88:b7:0e:94:bb:
        da:ae:cc:71:86:e6:a8:01:d6:ff:b7:78:55:7d:6e:69:6b:14:
        09:b3:6d:74:f1:0c:16:7a:6e:b2:f8:14:57:4c:c2:c2:54:41:
        f3:75:9a:eb:5a:7a:a1:8f:d4:f5:45:d2:6b:51:ee:ed:a2:e6:
        86:74:79:56:2b:51:60:ca:d2:12:aa:65:84:c0:3c:06:27:82:
        c6:8f:cf:9a:03:b3:ea:64:e4:b0:5c:88:c5:d8:1e:14:ac:80:
        38:7c:92:60:4d:af:ce:16:88:3e:55:67:20:38:72:5d:d5:14:
        80:10:60:38:f2:71:0e:4d:33:c5:b8:b4:be:fc:db:3a:71:ac:
        15:71:f3:c1:20:96:ef:69:97:dc:f6:2d:12:ea:16:b8:a6:09:
        07:30:25:95:4c:b9:89:f6:6b:b0:b9:e8:18:c9:e3:e5:79:ed:
        2c:d7:75:a3:bc:ac:d4:f9:c9:39:7b:f1:0c:6d:b3:f2:3f:b1:
        56:26:c2:0e:57:ea:f4:9e
-----BEGIN CERTIFICATE-----
MIIElzCCAn+gAwIBAgIUGtwJ6r4q6d9BgABo6i8HXjvSm18wDQYJKoZIhvcNAQEL
BQAwMDEPMA0GA1UEAwwGU3ViIENBMQswCQYDVQQGEwJERTEQMA4GA1UECgwHRXhh
bXBsZTAeFw0yMzAxMjgwMTU0NTVaFw0yNDAxMjgwMTU0NTVaMDMxEjAQBgNVBAMM
CWxvY2FsaG9zdDELMAkGA1UEBhMCREUxEDAOBgNVBAoMB0V4YW1wbGUwggEiMA0G
CSqGSIb3DQEBAQUAA4IBDwAwggEKAoIBAQCN3thigqnYnjo69b5S7DAlWwz1SRuk
UFvXIBnR6QKndn5wULlkdFl9No1o5VgXdtlRq7Mzgavs8JZk3m8ArDc6S473hz2j
VsV4r3wcg5gLPFc1zgXSornzwYP3W89y18bjdIvx1bne2g0b6rkYLIJNhDifD8Hm
OoTNhY2aYFSxhWZvR6mI6DbyGvH733vX+Td3icgf9fq6Hk3N4BPWan1Ub2AqwMrh
2HWEB5sdPenw61TVx7DxIKXUnwNyWqM2kIC1ym38veZK9DXSU5xFKIG7QgdBokqR
4qmJg2at+kSjgNM6Vlzslykr3uENvTsR3Pz5c878zrs4p2L1/TfamelrAgMBAAGj
gaUwgaIwHwYDVR0jBBgwFoAUxHU3BCCByiYeWP6byb+W3A0Ol5EwDAYDVR0TAQH/
BAIwADAdBgNVHSUEFjAUBggrBgEFBQcDAQYIKwYBBQUHAwIwDgYDVR0PAQH/BAQD
AgWgMB0GA1UdDgQWBBRR34WMIChUpXV45+H1+iZjmnTeGjAjBgNVHREEHDAagg13
d3cubG9jYWxob3N0gglsb2NhbGhvc3QwDQYJKoZIhvcNAQELBQADggIBAI10s/WB
pdbj6CyLcjV27xcADtmRHIKB6ad4g2+WzfqYI8h5ywWqzJLy7ktA/xUZ0du7mxkU
DPsSW3kmKmZSeheP9VbBGBJiJA3A4poH7R3GO83iJCzLewz/Nam8R1fsmad3t3Xr
PoTtAPa4toFH5NAqEg8QWfSx3hPYI95nA/RZzfzctIobnjq/31o5fGCAvdeIwp4G
8fyfCDF/l3ZCiC2DwdiyafSSMBT1WevyoyyUITdWsoEqKxWIKRdOa3qvhbgEY0xm
xgEbDGRtwrYXN+D9XHQOaVSCxJbODgtZH1xl8wdKgoCYbpMxjuE/X5jHegNGoXoM
3Yp6yVPZhKqkul+Tjo6+4Tt08cY4Ur719kTFYPRnKxMc4b0VYtYdYbaUrmVCwXRx
/Rwe4Iygw9yEsX5cgF5CXmH7IjUdxyCubaiItw6Uu9quzHGG5qgB1v+3eFV9bmlr
FAmzbXTxDBZ6brL4FFdMwsJUQfN1mutaeqGP1PVF0mtR7u2i5oZ0eVYrUWDK0hKq
ZYTAPAYngsaPz5oDs+pk5LBciMXYHhSsgDh8kmBNr84WiD5VZyA4cl3VFIAQYDjy
cQ5NM8W4tL782zpxrBVx88Eglu9pl9z2LRLqFrimCQcwJZVMuYn2a7C56BjJ4+V5
7SzXdaO8rNT5yTl78Qxts/I/sVYmwg5X6vSe
-----END CERTIFICATE-----
